target datalayout = "e-m:e-p270:32:32-p271:32:32-p272:64:64-i64:64-i128:128-f80:128-n8:16:32:64-S128"
target triple = "x86_64-pc-linux-gnu"

%struct.zlib_writer = type { %struct.Curl_cwriter, i32, i32, %struct.z_stream_s }
%struct.Curl_cwriter = type { ptr, ptr, ptr, i32 }
%struct.z_stream_s = type { ptr, i32, i64, ptr, i32, i64, ptr, ptr, ptr, ptr, ptr, i32, i64, i64 }

@.str.12 = private unnamed_addr constant [6 x i8] c"1.3.1\00", align 1
@.str.13 = private unnamed_addr constant [46 x i8] c"Error while processing content unencoding: %s\00", align 1
@.str.14 = private unnamed_addr constant [90 x i8] c"Error while processing content unencoding: Unknown failure within decompression software.\00", align 1
@.str.17 = private unnamed_addr constant [8 x i8] c"1.2.0.4\00", align 1

; Function Attrs: nounwind uwtable
define internal i32 @process_zlib_error(ptr noundef %0, ptr noundef %1) #0 {
  %3 = alloca ptr, align 8
  %4 = alloca ptr, align 8
  store ptr %0, ptr %3, align 8, !tbaa !21
  store ptr %1, ptr %4, align 8, !tbaa !106
  %5 = load ptr, ptr %4, align 8, !tbaa !106
  %6 = getelementptr inbounds nuw %struct.z_stream_s, ptr %5, i32 0, i32 6
  %7 = load ptr, ptr %6, align 8, !tbaa !119
  %8 = icmp ne ptr %7, null
  br i1 %8, label %9, label %14

9:                                                ; preds = %2
  %10 = load ptr, ptr %3, align 8, !tbaa !21
  %11 = load ptr, ptr %4, align 8, !tbaa !106
  %12 = getelementptr inbounds nuw %struct.z_stream_s, ptr %11, i32 0, i32 6
  %13 = load ptr, ptr %12, align 8, !tbaa !119
  call void (ptr, ptr, ...) @Curl_failf(ptr noundef %10, ptr noundef @.str.13, ptr noundef %13)
  br label %16

14:                                               ; preds = %2
  %15 = load ptr, ptr %3, align 8, !tbaa !21
  call void (ptr, ptr, ...) @Curl_failf(ptr noundef %15, ptr noundef @.str.14)
  br label %16

16:                                               ; preds = %14, %9
  ret i32 61
}

; Function Attrs: nounwind uwtable
define internal i32 @gzip_do_init(ptr noundef %0, ptr noundef %1) #0 {
  %3 = alloca i32, align 4
  %4 = alloca ptr, align 8
  %5 = alloca ptr, align 8
  %6 = alloca ptr, align 8
  %7 = alloca ptr, align 8
  %8 = alloca i32, align 4
  store ptr %0, ptr %4, align 8, !tbaa !21
  store ptr %1, ptr %5, align 8, !tbaa !99
  call void @llvm.lifetime.start.p0(i64 8, ptr %6) #6
  %9 = load ptr, ptr %5, align 8, !tbaa !99
  store ptr %9, ptr %6, align 8, !tbaa !104
  call void @llvm.lifetime.start.p0(i64 8, ptr %7) #6
  %10 = load ptr, ptr %6, align 8, !tbaa !104
  %11 = getelementptr inbounds nuw %struct.zlib_writer, ptr %10, i32 0, i32 3
  store ptr %11, ptr %7, align 8, !tbaa !106
  %12 = load ptr, ptr %7, align 8, !tbaa !106
  %13 = getelementptr inbounds nuw %struct.z_stream_s, ptr %12, i32 0, i32 8
  store ptr @zalloc_cb, ptr %13, align 8, !tbaa !108
  %14 = load ptr, ptr %7, align 8, !tbaa !106
  %15 = getelementptr inbounds nuw %struct.z_stream_s, ptr %14, i32 0, i32 9
  store ptr @zfree_cb, ptr %15, align 8, !tbaa !111
  %16 = call ptr @cm_zlib_zlibVersion()
  %17 = call i32 @strcmp(ptr noundef %16, ptr noundef @.str.17) #7
  %18 = icmp sge i32 %17, 0
  br i1 %18, label %19, label %30

19:                                               ; preds = %2
  %20 = load ptr, ptr %7, align 8, !tbaa !106
  %21 = call i32 @cm_zlib_inflateInit2_(ptr noundef %20, i32 noundef 47, ptr noundef @.str.12, i32 noundef 112)
  %22 = icmp ne i32 %21, 0
  br i1 %22, label %23, label %27

23:                                               ; preds = %19
  %24 = load ptr, ptr %4, align 8, !tbaa !21
  %25 = load ptr, ptr %7, align 8, !tbaa !106
  %26 = call i32 @process_zlib_error(ptr noundef %24, ptr noundef %25)
  store i32 %26, ptr %3, align 4
  store i32 1, ptr %8, align 4
  br label %44

27:                                               ; preds = %19
  %28 = load ptr, ptr %6, align 8, !tbaa !104
  %29 = getelementptr inbounds nuw %struct.zlib_writer, ptr %28, i32 0, i32 1
  store i32 6, ptr %29, align 8, !tbaa !112
  br label %43

30:                                               ; preds = %2
  %31 = load ptr, ptr %7, align 8, !tbaa !106
  %32 = call i32 @cm_zlib_inflateInit2_(ptr noundef %31, i32 noundef -15, ptr noundef @.str.12, i32 noundef 112)
  %33 = icmp ne i32 %32, 0
  br i1 %33, label %34, label %38

34:                                               ; preds = %30
  %35 = load ptr, ptr %4, align 8, !tbaa !21
  %36 = load ptr, ptr %7, align 8, !tbaa !106
  %37 = call i32 @process_zlib_error(ptr noundef %35, ptr noundef %36)
  store i32 %37, ptr %3, align 4
  store i32 1, ptr %8, align 4
  br label %44

38:                                               ; preds = %30
  %39 = load ptr, ptr %6, align 8, !tbaa !104
  %40 = getelementptr inbounds nuw %struct.zlib_writer, ptr %39, i32 0, i32 2
  store i32 8, ptr %40, align 4, !tbaa !120
  %41 = load ptr, ptr %6, align 8, !tbaa !104
  %42 = getelementptr inbounds nuw %struct.zlib_writer, ptr %41, i32 0, i32 1
  store i32 1, ptr %42, align 8, !tbaa !112
  br label %43

43:                                               ; preds = %38, %27
  store i32 0, ptr %3, align 4
  store i32 1, ptr %8, align 4
  br label %44

44:                                               ; preds = %43, %34, %23
  call void @llvm.lifetime.end.p0(i64 8, ptr %7) #6
  call void @llvm.lifetime.end.p0(i64 8, ptr %6) #6
  %45 = load i32, ptr %3, align 4
  ret i32 %45
}