; Function Attrs: nounwind uwtable
define internal range(i32 0, 62) i32 @gzip_do_init(ptr noundef %0, ptr noundef initializes((104, 120)) %1) #0 {
  %3 = getelementptr inbounds nuw i8, ptr %1, i64 40
  %4 = getelementptr inbounds nuw i8, ptr %1, i64 104
  store ptr @zalloc_cb, ptr %4, align 8, !tbaa !92
  %5 = getelementptr inbounds nuw i8, ptr %1, i64 112
  store ptr @zfree_cb, ptr %5, align 8, !tbaa !95
  %6 = tail call ptr @cm_zlib_zlibVersion() #8
  %7 = tail call i32 @strcmp(ptr noundef nonnull dereferenceable(1) %6, ptr noundef nonnull dereferenceable(8) @.str.17) #9
  %8 = icmp sgt i32 %7, -1
  br i1 %8, label %9, label %17

9:                                                ; preds = %2
  %10 = tail call i32 @cm_zlib_inflateInit2_(ptr noundef nonnull %3, i32 noundef 47, ptr noundef nonnull @.str.12, i32 noundef 112) #8
  %.not13 = icmp eq i32 %10, 0
  br i1 %.not13, label %15, label %11

11:                                               ; preds = %9
  %12 = getelementptr i8, ptr %1, i64 88
  %.val14 = load ptr, ptr %12, align 8, !tbaa !96
  %.not.i = icmp eq ptr %.val14, null
  br i1 %.not.i, label %14, label %13

13:                                               ; preds = %11
  tail call void (ptr, ptr, ...) @Curl_failf(ptr noundef %0, ptr noundef nonnull @.str.13, ptr noundef nonnull %.val14) #8
  br label %process_zlib_error.exit

14:                                               ; preds = %11
  tail call void (ptr, ptr, ...) @Curl_failf(ptr noundef %0, ptr noundef nonnull @.str.14) #8
  br label %process_zlib_error.exit

15:                                               ; preds = %9
  %16 = getelementptr inbounds nuw i8, ptr %1, i64 32
  store i32 6, ptr %16, align 8, !tbaa !97
  br label %process_zlib_error.exit

17:                                               ; preds = %2
  %18 = tail call i32 @cm_zlib_inflateInit2_(ptr noundef nonnull %3, i32 noundef -15, ptr noundef nonnull @.str.12, i32 noundef 112) #8
  %.not = icmp eq i32 %18, 0
  br i1 %.not, label %23, label %19

19:                                               ; preds = %17
  %20 = getelementptr i8, ptr %1, i64 88
  %.val = load ptr, ptr %20, align 8, !tbaa !96
  %.not.i15 = icmp eq ptr %.val, null
  br i1 %.not.i15, label %22, label %21

21:                                               ; preds = %19
  tail call void (ptr, ptr, ...) @Curl_failf(ptr noundef %0, ptr noundef nonnull @.str.13, ptr noundef nonnull %.val) #8
  br label %process_zlib_error.exit

22:                                               ; preds = %19
  tail call void (ptr, ptr, ...) @Curl_failf(ptr noundef %0, ptr noundef nonnull @.str.14) #8
  br label %process_zlib_error.exit

23:                                               ; preds = %17
  %24 = getelementptr inbounds nuw i8, ptr %1, i64 36
  store i32 8, ptr %24, align 4, !tbaa !105
  %25 = getelementptr inbounds nuw i8, ptr %1, i64 32
  store i32 1, ptr %25, align 8, !tbaa !97
  br label %process_zlib_error.exit

process_zlib_error.exit:                          ; preds = %22, %21, %14, %13, %15, %23
  %.0 = phi i32 [ 0, %23 ], [ 0, %15 ], [ 61, %13 ], [ 61, %14 ], [ 61, %21 ], [ 61, %22 ]
  ret i32 %.0
}